; ModuleID = '57/89.c'
source_filename = "57/89.c"
target datalayout = "e-m:e-p270:32:32-p271:32:32-p272:64:64-i64:64-f80:128-n8:16:32:64-S128"
target triple = "x86_64-pc-linux-gnu"

@.str = private unnamed_addr constant [3 x i8] c"%d\00", align 1
@.str.1 = private unnamed_addr constant [3 x i8] c"%s\00", align 1
@.str.2 = private unnamed_addr constant [4 x i8] c"%s\0A\00", align 1

; Function Attrs: noinline nounwind uwtable
define dso_local void @main() #0 {
  %1 = alloca [50 x [51 x i8]], align 16
  %2 = alloca [50 x [51 x i8]], align 16
  %3 = alloca i32, align 4
  %4 = alloca i32, align 4
  %5 = alloca i32, align 4
  %6 = alloca i32, align 4
  %7 = alloca i32, align 4
  %8 = call i32 (i8*, ...) @__isoc99_scanf(i8* getelementptr inbounds ([3 x i8], [3 x i8]* @.str, i64 0, i64 0), i32* %4)
  store i32 0, i32* %3, align 4
  br label %9

9:                                                ; preds = %63, %0
  %10 = load i32, i32* %3, align 4
  %11 = load i32, i32* %4, align 4
  %12 = icmp slt i32 %10, %11
  br i1 %12, label %13, label %66

13:                                               ; preds = %9
  %14 = load i32, i32* %3, align 4
  %15 = sext i32 %14 to i64
  %16 = getelementptr inbounds [50 x [51 x i8]], [50 x [51 x i8]]* %1, i64 0, i64 %15
  %17 = getelementptr inbounds [51 x i8], [51 x i8]* %16, i64 0, i64 0
  %18 = call i32 (i8*, ...) @__isoc99_scanf(i8* getelementptr inbounds ([3 x i8], [3 x i8]* @.str.1, i64 0, i64 0), i8* %17)
  %19 = load i32, i32* %3, align 4
  %20 = sext i32 %19 to i64
  %21 = getelementptr inbounds [50 x [51 x i8]], [50 x [51 x i8]]* %1, i64 0, i64 %20
  %22 = getelementptr inbounds [51 x i8], [51 x i8]* %21, i64 0, i64 0
  %23 = call i64 @strlen(i8* %22) #3
  %24 = trunc i64 %23 to i32
  store i32 %24, i32* %5, align 4
  %25 = load i32, i32* %3, align 4
  %26 = sext i32 %25 to i64
  %27 = getelementptr inbounds [50 x [51 x i8]], [50 x [51 x i8]]* %1, i64 0, i64 %26
  %28 = load i32, i32* %5, align 4
  %29 = sub nsw i32 %28, 3
  %30 = sext i32 %29 to i64
  %31 = getelementptr inbounds [51 x i8], [51 x i8]* %27, i64 0, i64 %30
  %32 = load i8, i8* %31, align 1
  %33 = sext i8 %32 to i32
  %34 = icmp eq i32 %33, 105
  br i1 %34, label %35, label %54

35:                                               ; preds = %13
  %36 = load i32, i32* %3, align 4
  %37 = sext i32 %36 to i64
  %38 = getelementptr inbounds [50 x [51 x i8]], [50 x [51 x i8]]* %1, i64 0, i64 %37
  %39 = load i32, i32* %5, align 4
  %40 = sub nsw i32 %39, 2
  %41 = sext i32 %40 to i64
  %42 = getelementptr inbounds [51 x i8], [51 x i8]* %38, i64 0, i64 %41
  %43 = load i8, i8* %42, align 1
  %44 = sext i8 %43 to i32
  %45 = icmp eq i32 %44, 110
  br i1 %45, label %46, label %54

46:                                               ; preds = %35
  %47 = load i32, i32* %3, align 4
  %48 = sext i32 %47 to i64
  %49 = getelementptr inbounds [50 x [51 x i8]], [50 x [51 x i8]]* %1, i64 0, i64 %48
  %50 = load i32, i32* %5, align 4
  %51 = sub nsw i32 %50, 3
  %52 = sext i32 %51 to i64
  %53 = getelementptr inbounds [51 x i8], [51 x i8]* %49, i64 0, i64 %52
  store i8 0, i8* %53, align 1
  br label %62

54:                                               ; preds = %35, %13
  %55 = load i32, i32* %3, align 4
  %56 = sext i32 %55 to i64
  %57 = getelementptr inbounds [50 x [51 x i8]], [50 x [51 x i8]]* %1, i64 0, i64 %56
  %58 = load i32, i32* %5, align 4
  %59 = sub nsw i32 %58, 2
  %60 = sext i32 %59 to i64
  %61 = getelementptr inbounds [51 x i8], [51 x i8]* %57, i64 0, i64 %60
  store i8 0, i8* %61, align 1
  br label %62

62:                                               ; preds = %54, %46
  br label %63

63:                                               ; preds = %62
  %64 = load i32, i32* %3, align 4
  %65 = add nsw i32 %64, 1
  store i32 %65, i32* %3, align 4
  br label %9

66:                                               ; preds = %9
  store i32 0, i32* %3, align 4
  br label %67

67:                                               ; preds = %77, %66
  %68 = load i32, i32* %3, align 4
  %69 = load i32, i32* %4, align 4
  %70 = icmp slt i32 %68, %69
  br i1 %70, label %71, label %80

71:                                               ; preds = %67
  %72 = load i32, i32* %3, align 4
  %73 = sext i32 %72 to i64
  %74 = getelementptr inbounds [50 x [51 x i8]], [50 x [51 x i8]]* %1, i64 0, i64 %73
  %75 = getelementptr inbounds [51 x i8], [51 x i8]* %74, i64 0, i64 0
  %76 = call i32 (i8*, ...) @printf(i8* getelementptr inbounds ([4 x i8], [4 x i8]* @.str.2, i64 0, i64 0), i8* %75)
  br label %77

77:                                               ; preds = %71
  %78 = load i32, i32* %3, align 4
  %79 = add nsw i32 %78, 1
  store i32 %79, i32* %3, align 4
  br label %67

80:                                               ; preds = %67
  ret void
}

declare dso_local i32 @__isoc99_scanf(i8*, ...) #1

; Function Attrs: nounwind readonly
declare dso_local i64 @strlen(i8*) #2

declare dso_local i32 @printf(i8*, ...) #1


!llvm.module.flags = !{!0}
!llvm.ident = !{!1}

!0 = !{i32 1, !"wchar_size", i32 4}
!1 = !{!"clang version 10.0.0-4ubuntu1 "}
