; ModuleID = 'source-C-CXX/56/89.c'
source_filename = "source-C-CXX/56/89.c"
target datalayout = "e-m:e-p270:32:32-p271:32:32-p272:64:64-i64:64-f80:128-n8:16:32:64-S128"
target triple = "x86_64-pc-linux-gnu"

@.str = private unnamed_addr constant [3 x i8] c"%d\00", align 1
@.str.1 = private unnamed_addr constant [3 x i8] c"%s\00", align 1

; Function Attrs: nofree nounwind sspstrong uwtable
define dso_local void @main() local_unnamed_addr #0 {
  %1 = alloca [50 x [51 x i8]], align 16
  %2 = alloca i32, align 4
  %3 = getelementptr inbounds [50 x [51 x i8]], [50 x [51 x i8]]* %1, i64 0, i64 0, i64 0
  call void @llvm.lifetime.start.p0i8(i64 2550, i8* nonnull %3) #5
  %4 = bitcast i32* %2 to i8*
  call void @llvm.lifetime.start.p0i8(i64 4, i8* nonnull %4) #5
  %5 = call i32 (i8*, ...) @__isoc99_scanf(i8* getelementptr inbounds ([3 x i8], [3 x i8]* @.str, i64 0, i64 0), i32* nonnull %2)
  %6 = load i32, i32* %2, align 4, !tbaa !5
  %7 = icmp sgt i32 %6, 0
  br i1 %7, label %10, label %43

8:                                                ; preds = %29
  %9 = icmp sgt i32 %32, 0
  br i1 %9, label %35, label %43

10:                                               ; preds = %0, %29
  %11 = phi i64 [ %31, %29 ], [ 0, %0 ]
  %12 = getelementptr inbounds [50 x [51 x i8]], [50 x [51 x i8]]* %1, i64 0, i64 %11, i64 0
  %13 = call i32 (i8*, ...) @__isoc99_scanf(i8* getelementptr inbounds ([3 x i8], [3 x i8]* @.str.1, i64 0, i64 0), i8* nonnull %12)
  %14 = call i64 @strlen(i8* noundef nonnull %12) #6
  %15 = shl i64 %14, 32
  %16 = add i64 %15, -12884901888
  %17 = ashr exact i64 %16, 32
  %18 = getelementptr inbounds [50 x [51 x i8]], [50 x [51 x i8]]* %1, i64 0, i64 %11, i64 %17
  %19 = load i8, i8* %18, align 1, !tbaa !9
  %20 = icmp eq i8 %19, 105
  %21 = add i64 %15, -8589934592
  %22 = ashr exact i64 %21, 32
  br i1 %20, label %23, label %27

23:                                               ; preds = %10
  %24 = getelementptr inbounds [50 x [51 x i8]], [50 x [51 x i8]]* %1, i64 0, i64 %11, i64 %22
  %25 = load i8, i8* %24, align 1, !tbaa !9
  %26 = icmp eq i8 %25, 110
  br i1 %26, label %29, label %27

27:                                               ; preds = %10, %23
  %28 = getelementptr inbounds [50 x [51 x i8]], [50 x [51 x i8]]* %1, i64 0, i64 %11, i64 %22
  br label %29

29:                                               ; preds = %23, %27
  %30 = phi i8* [ %28, %27 ], [ %18, %23 ]
  store i8 0, i8* %30, align 1, !tbaa !9
  %31 = add nuw nsw i64 %11, 1
  %32 = load i32, i32* %2, align 4, !tbaa !5
  %33 = sext i32 %32 to i64
  %34 = icmp slt i64 %31, %33
  br i1 %34, label %10, label %8, !llvm.loop !10

35:                                               ; preds = %8, %35
  %36 = phi i64 [ %39, %35 ], [ 0, %8 ]
  %37 = getelementptr inbounds [50 x [51 x i8]], [50 x [51 x i8]]* %1, i64 0, i64 %36, i64 0
  %38 = call i32 @puts(i8* nonnull %37)
  %39 = add nuw nsw i64 %36, 1
  %40 = load i32, i32* %2, align 4, !tbaa !5
  %41 = sext i32 %40 to i64
  %42 = icmp slt i64 %39, %41
  br i1 %42, label %35, label %43, !llvm.loop !12

43:                                               ; preds = %35, %0, %8
  call void @llvm.lifetime.end.p0i8(i64 4, i8* nonnull %4) #5
  call void @llvm.lifetime.end.p0i8(i64 2550, i8* nonnull %3) #5
  ret void
}

; Function Attrs: argmemonly mustprogress nofree nosync nounwind willreturn
declare void @llvm.lifetime.start.p0i8(i64 immarg, i8* nocapture) #1

; Function Attrs: nofree nounwind
declare noundef i32 @__isoc99_scanf(i8* nocapture noundef readonly, ...) local_unnamed_addr #2

; Function Attrs: argmemonly mustprogress nofree nounwind readonly willreturn
declare i64 @strlen(i8* nocapture) local_unnamed_addr #3

; Function Attrs: argmemonly mustprogress nofree nosync nounwind willreturn
declare void @llvm.lifetime.end.p0i8(i64 immarg, i8* nocapture) #1

; Function Attrs: nofree nounwind
declare noundef i32 @puts(i8* nocapture noundef readonly) local_unnamed_addr #4


!llvm.module.flags = !{!0, !1, !2, !3}
!llvm.ident = !{!4}

!0 = !{i32 1, !"wchar_size", i32 4}
!1 = !{i32 7, !"PIC Level", i32 2}
!2 = !{i32 7, !"PIE Level", i32 2}
!3 = !{i32 7, !"uwtable", i32 1}
!4 = !{!"clang version 13.0.0"}
!5 = !{!6, !6, i64 0}
!6 = !{!"int", !7, i64 0}
!7 = !{!"omnipotent char", !8, i64 0}
!8 = !{!"Simple C/C++ TBAA"}
!9 = !{!7, !7, i64 0}
!10 = distinct !{!10, !11}
!11 = !{!"llvm.loop.mustprogress"}
!12 = distinct !{!12, !11}
